target datalayout = "e-m:e-p270:32:32-p271:32:32-p272:64:64-i64:64-i128:128-f80:128-n8:16:32:64-S128"
target triple = "x86_64-pc-linux-gnu"

@.str.360 = private unnamed_addr constant [46 x i8] c"../cpython/Modules/_testlimitedcapi/unicode.c\00", align 1
@.str.368 = private unnamed_addr constant [18 x i8] c"!PyErr_Occurred()\00", align 1
@.str.396 = private unnamed_addr constant [6 x i8] c"Oz#|n\00", align 1
@__PRETTY_FUNCTION__.unicode_equaltoutf8andsize = private unnamed_addr constant [61 x i8] c"PyObject *unicode_equaltoutf8andsize(PyObject *, PyObject *)\00", align 1

; Function Attrs: nounwind uwtable
define internal ptr @unicode_equaltoutf8andsize(ptr noundef %0, ptr noundef %1) #0 {
  %3 = alloca ptr, align 8
  %4 = alloca ptr, align 8
  %5 = alloca ptr, align 8
  %6 = alloca ptr, align 8
  %7 = alloca ptr, align 8
  %8 = alloca i64, align 8
  %9 = alloca i64, align 8
  %10 = alloca i32, align 4
  %11 = alloca i32, align 4
  store ptr %0, ptr %4, align 8, !tbaa !3
  store ptr %1, ptr %5, align 8, !tbaa !3
  call void @llvm.lifetime.start.p0(i64 8, ptr %6) #7
  call void @llvm.lifetime.start.p0(i64 8, ptr %7) #7
  store ptr null, ptr %7, align 8, !tbaa !8
  call void @llvm.lifetime.start.p0(i64 8, ptr %8) #7
  call void @llvm.lifetime.start.p0(i64 8, ptr %9) #7
  store i64 -100, ptr %9, align 8, !tbaa !12
  call void @llvm.lifetime.start.p0(i64 4, ptr %10) #7
  %12 = load ptr, ptr %5, align 8, !tbaa !3
  %13 = call i32 (ptr, ptr, ...) @PyArg_ParseTuple(ptr noundef %12, ptr noundef @.str.396, ptr noundef %6, ptr noundef %7, ptr noundef %8, ptr noundef %9)
  %14 = icmp ne i32 %13, 0
  br i1 %14, label %16, label %15

15:                                               ; preds = %2
  store ptr null, ptr %3, align 8
  store i32 1, ptr %11, align 4
  br label %43

16:                                               ; preds = %2
  br label %17

17:                                               ; preds = %16
  %18 = load ptr, ptr %6, align 8, !tbaa !3
  %19 = call ptr @Py_GetConstantBorrowed(i32 noundef 0)
  %20 = icmp eq ptr %18, %19
  br i1 %20, label %21, label %22

21:                                               ; preds = %17
  store ptr null, ptr %6, align 8, !tbaa !3
  br label %22

22:                                               ; preds = %21, %17
  br label %23

23:                                               ; preds = %22
  br label %24

24:                                               ; preds = %23
  %25 = load i64, ptr %9, align 8, !tbaa !12
  %26 = icmp eq i64 %25, -100
  br i1 %26, label %27, label %29

27:                                               ; preds = %24
  %28 = load i64, ptr %8, align 8, !tbaa !12
  store i64 %28, ptr %9, align 8, !tbaa !12
  br label %29

29:                                               ; preds = %27, %24
  %30 = load ptr, ptr %6, align 8, !tbaa !3
  %31 = load ptr, ptr %7, align 8, !tbaa !8
  %32 = load i64, ptr %9, align 8, !tbaa !12
  %33 = call i32 @PyUnicode_EqualToUTF8AndSize(ptr noundef %30, ptr noundef %31, i64 noundef %32)
  store i32 %33, ptr %10, align 4, !tbaa !10
  %34 = call ptr @PyErr_Occurred()
  %35 = icmp ne ptr %34, null
  br i1 %35, label %37, label %36

36:                                               ; preds = %29
  br label %39

37:                                               ; preds = %29
  call void @__assert_fail(ptr noundef @.str.368, ptr noundef @.str.360, i32 noundef 1337, ptr noundef @__PRETTY_FUNCTION__.unicode_equaltoutf8andsize) #8
  unreachable

38:                                               ; No predecessors!
  br label %39

39:                                               ; preds = %38, %36
  %40 = load i32, ptr %10, align 4, !tbaa !10
  %41 = sext i32 %40 to i64
  %42 = call ptr @PyLong_FromLong(i64 noundef %41)
  store ptr %42, ptr %3, align 8
  store i32 1, ptr %11, align 4
  br label %43

43:                                               ; preds = %39, %15
  call void @llvm.lifetime.end.p0(i64 4, ptr %10) #7
  call void @llvm.lifetime.end.p0(i64 8, ptr %9) #7
  call void @llvm.lifetime.end.p0(i64 8, ptr %8) #7
  call void @llvm.lifetime.end.p0(i64 8, ptr %7) #7
  call void @llvm.lifetime.end.p0(i64 8, ptr %6) #7
  %44 = load ptr, ptr %3, align 8
  ret ptr %44
}