; Function Attrs: nounwind uwtable
define internal ptr @unicode_equaltoutf8andsize(ptr readnone captures(none) %0, ptr noundef %1) #0 {
  %3 = alloca ptr, align 8
  %4 = alloca ptr, align 8
  %5 = alloca i64, align 8
  %6 = alloca i64, align 8
  call void @llvm.lifetime.start.p0(i64 8, ptr nonnull %3) #4
  call void @llvm.lifetime.start.p0(i64 8, ptr nonnull %4) #4
  store ptr null, ptr %4, align 8, !tbaa !3
  call void @llvm.lifetime.start.p0(i64 8, ptr nonnull %5) #4
  call void @llvm.lifetime.start.p0(i64 8, ptr nonnull %6) #4
  store i64 -100, ptr %6, align 8, !tbaa !10
  %7 = call i32 (ptr, ptr, ...) @PyArg_ParseTuple(ptr noundef %1, ptr noundef nonnull @.str.396, ptr noundef nonnull %3, ptr noundef nonnull %4, ptr noundef nonnull %5, ptr noundef nonnull %6) #4
  %.not = icmp eq i32 %7, 0
  br i1 %.not, label %28, label %8

8:                                                ; preds = %2
  %9 = load ptr, ptr %3, align 8, !tbaa !8
  %10 = call ptr @Py_GetConstantBorrowed(i32 noundef 0) #4
  %11 = icmp eq ptr %9, %10
  br i1 %11, label %12, label %13

12:                                               ; preds = %8
  store ptr null, ptr %3, align 8, !tbaa !8
  br label %13

13:                                               ; preds = %12, %8
  %14 = load i64, ptr %6, align 8, !tbaa !10
  %15 = icmp eq i64 %14, -100
  br i1 %15, label %16, label %18

16:                                               ; preds = %13
  %17 = load i64, ptr %5, align 8, !tbaa !10
  store i64 %17, ptr %6, align 8, !tbaa !10
  br label %18

18:                                               ; preds = %16, %13
  %19 = phi i64 [ %17, %16 ], [ %14, %13 ]
  %20 = load ptr, ptr %3, align 8, !tbaa !8
  %21 = load ptr, ptr %4, align 8, !tbaa !3
  %22 = call i32 @PyUnicode_EqualToUTF8AndSize(ptr noundef %20, ptr noundef %21, i64 noundef %19) #4
  %23 = call ptr @PyErr_Occurred() #4
  %.not2 = icmp eq ptr %23, null
  br i1 %.not2, label %25, label %24

24:                                               ; preds = %18
  call void @__assert_fail(ptr noundef nonnull @.str.368, ptr noundef nonnull @.str.360, i32 noundef 1337, ptr noundef nonnull @__PRETTY_FUNCTION__.unicode_equaltoutf8andsize) #5
  unreachable

25:                                               ; preds = %18
  %26 = sext i32 %22 to i64
  %27 = call ptr @PyLong_FromLong(i64 noundef %26) #4
  br label %28

28:                                               ; preds = %2, %25
  %.0 = phi ptr [ %27, %25 ], [ null, %2 ]
  call void @llvm.lifetime.end.p0(i64 8, ptr nonnull %6) #4
  call void @llvm.lifetime.end.p0(i64 8, ptr nonnull %5) #4
  call void @llvm.lifetime.end.p0(i64 8, ptr nonnull %4) #4
  call void @llvm.lifetime.end.p0(i64 8, ptr nonnull %3) #4
  ret ptr %.0
}